; Function Attrs: mustprogress uwtable
define void @_ZN4LIEF3DEX5FieldC2ENSt7__cxx1112basic_stringIcSt11char_traitsIcESaIcEEEPNS0_5ClassE(ptr noundef nonnull align 8 dereferenceable(65) %0, ptr noundef %1, ptr noundef %2) unnamed_addr #2 align 2 {
  tail call void @_ZN4LIEF6ObjectC2Ev(ptr noundef nonnull align 8 dereferenceable(8) %0)
  store ptr getelementptr inbounds ({ [7 x ptr] }, ptr @_ZTVN4LIEF3DEX5FieldE, i64 0, i32 0, i64 2), ptr %0, align 8
  %4 = getelementptr inbounds i8, ptr %0, i64 8
  tail call void @_ZNSt7__cxx1112basic_stringIcSt11char_traitsIcESaIcEEC1EOS4_(ptr noundef nonnull align 8 dereferenceable(32) %4, ptr noundef nonnull align 8 dereferenceable(32) %1) #18
  %5 = getelementptr inbounds i8, ptr %0, i64 40
  store ptr %2, ptr %5, align 8
  %6 = getelementptr inbounds i8, ptr %0, i64 48
  store ptr null, ptr %6, align 8
  %7 = getelementptr inbounds i8, ptr %0, i64 56
  store i32 0, ptr %7, align 8
  %8 = getelementptr inbounds i8, ptr %0, i64 60
  store i32 -1, ptr %8, align 4
  %9 = getelementptr inbounds i8, ptr %0, i64 64
  store i8 0, ptr %9, align 8
  ret void
}